; ModuleID = 'bench/linux/original/acpi_memhotplug.ll'
source_filename = "bench/linux/original/acpi_memhotplug.ll"
target datalayout = "e-m:e-p270:32:32-p271:32:32-p272:64:64-i64:64-i128:128-f80:128-n8:16:32:64-S128"
target triple = "x86_64-unknown-linux-gnu"

%struct.acpi_scan_handler = type { ptr, %struct.list_head, ptr, ptr, ptr, ptr, ptr, %struct.acpi_hotplug_profile }
%struct.list_head = type { ptr, ptr }
%struct.acpi_hotplug_profile = type { %struct.kobject, ptr, ptr, i8 }
%struct.kobject = type { ptr, %struct.list_head, ptr, ptr, ptr, ptr, %struct.kref, i8 }
%struct.kref = type { %struct.refcount_struct }
%struct.refcount_struct = type { %struct.atomic_t }
%struct.atomic_t = type { i32 }
%struct.acpi_device_id = type { [16 x i8], i64, i32, i32 }

@memory_device_handler = internal global %struct.acpi_scan_handler { ptr @memory_device_ids, %struct.list_head zeroinitializer, ptr null, ptr null, ptr null, ptr null, ptr null, %struct.acpi_hotplug_profile zeroinitializer }, align 8
@memory_device_ids = internal constant [2 x %struct.acpi_device_id] [%struct.acpi_device_id { [16 x i8] c"PNP0C80\00\00\00\00\00\00\00\00\00", i64 0, i32 0, i32 0 }, %struct.acpi_device_id zeroinitializer], align 16

; Function Attrs: cold fn_ret_thunk_extern nounwind null_pointer_is_valid optsize
define dso_local void @acpi_memory_hotplug_init() local_unnamed_addr #0 section ".init.text" align 16 {
  %1 = tail call i32 @acpi_scan_add_handler(ptr noundef nonnull @memory_device_handler) #2
  ret void
}

; Function Attrs: null_pointer_is_valid
declare dso_local i32 @acpi_scan_add_handler(ptr noundef) local_unnamed_addr #1


!llvm.module.flags = !{!0, !1, !2, !3, !4}

!0 = !{i32 1, !"wchar_size", i32 2}
!1 = !{i32 8, !"cf-protection-branch", i32 1}
!2 = !{i32 4, !"function_return_thunk_extern", i32 1}
!3 = !{i32 4, !"indirect_branch_cs_prefix", i32 1}
!4 = !{i32 4, !"SkipRaxSetup", i32 1}
